
PathFinder.elf:     file format elf32-avr

Sections:
Idx Name          Size      VMA       LMA       File off  Algn
  0 .text         000000b4  00000000  00000000  000000b4  2**1
                  CONTENTS, ALLOC, LOAD, READONLY, CODE
  1 .data         00000000  00800060  0000064c  00000700  2**0
                  ALLOC, LOAD, DATA
  2 .comment      0000002f  00000000  00000000  00000700  2**0
                  CONTENTS, READONLY
  3 .stack.descriptors.hdr 000000c4  00000000  00000000  0000072f  2**0
                  CONTENTS, READONLY
  4 .debug_aranges 00000058  00000000  00000000  000007f3  2**0
                  CONTENTS, READONLY, DEBUGGING
  5 .debug_info   00000a70  00000000  00000000  0000084b  2**0
                  CONTENTS, READONLY, DEBUGGING
  6 .debug_abbrev 00000673  00000000  00000000  000012bb  2**0
                  CONTENTS, READONLY, DEBUGGING
  7 .debug_line   000003f1  00000000  00000000  0000192e  2**0
                  CONTENTS, READONLY, DEBUGGING
  8 .debug_frame  0000011c  00000000  00000000  00001d20  2**2
                  CONTENTS, READONLY, DEBUGGING
  9 .debug_str    000001d5  00000000  00000000  00001e3c  2**0
                  CONTENTS, READONLY, DEBUGGING
 10 .debug_loc    0000022d  00000000  00000000  00002011  2**0
                  CONTENTS, READONLY, DEBUGGING
 11 .debug_ranges 00000048  00000000  00000000  0000223e  2**0
                  CONTENTS, READONLY, DEBUGGING
 12 .text         00000004  00000636  00000636  000006ea  2**1
                  CONTENTS, ALLOC, LOAD, READONLY, CODE
 13 .note.gnu.avr.deviceinfo 0000003c  00000000  00000000  00002288  2**2
                  CONTENTS, READONLY, DEBUGGING
 14 .text.triggerSonar 00000014  000005ae  000005ae  00000662  2**1
                  CONTENTS, ALLOC, LOAD, READONLY, CODE
 15 .text.main    0000012c  000000b4  000000b4  00000168  2**1
                  CONTENTS, ALLOC, LOAD, READONLY, CODE
 16 .text.__vector_1 00000036  000004ec  000004ec  000005a0  2**1
                  CONTENTS, ALLOC, LOAD, READONLY, CODE
 17 .text.__vector_9 00000014  000005c2  000005c2  00000676  2**1
                  CONTENTS, ALLOC, LOAD, READONLY, CODE
 18 .text.__vector_4 00000014  000005d6  000005d6  0000068a  2**1
                  CONTENTS, ALLOC, LOAD, READONLY, CODE
 19 .text.__vector_2 00000036  00000522  00000522  000005d6  2**1
                  CONTENTS, ALLOC, LOAD, READONLY, CODE
 20 .text.__vector_18 000000b8  00000392  00000392  00000446  2**1
                  CONTENTS, ALLOC, LOAD, READONLY, CODE
 21 .bss.rightCount 00000002  00800068  00800068  00000700  2**0
                  ALLOC
 22 .bss.leftCount 00000002  0080006a  0080006a  00000700  2**0
                  ALLOC
 23 .data.leftDutyCycle 00000004  00800060  00000644  000006f8  2**0
                  CONTENTS, ALLOC, LOAD, DATA
 24 .data.rightDutyCycle 00000004  00800064  00000648  000006fc  2**0
                  CONTENTS, ALLOC, LOAD, DATA
 25 .bss.i        00000002  0080006c  0080006c  00000700  2**0
                  ALLOC
 26 .bss.distance 00000002  0080006e  0080006e  00000700  2**0
                  ALLOC
 27 .text         00000008  00000620  00000620  000006d4  2**1
                  CONTENTS, ALLOC, LOAD, READONLY, CODE
 28 .text         000000de  000001e0  000001e0  00000294  2**1
                  CONTENTS, ALLOC, LOAD, READONLY, CODE
 29 .text         0000005e  0000044a  0000044a  000004fe  2**1
                  CONTENTS, ALLOC, LOAD, READONLY, CODE
 30 .text         0000000c  00000614  00000614  000006c8  2**1
                  CONTENTS, ALLOC, LOAD, READONLY, CODE
 31 .text         00000006  00000630  00000630  000006e4  2**1
                  CONTENTS, ALLOC, LOAD, READONLY, CODE
 32 .text         0000000e  000005ea  000005ea  0000069e  2**1
                  CONTENTS, ALLOC, LOAD, READONLY, CODE
 33 .text         0000000e  000005f8  000005f8  000006ac  2**1
                  CONTENTS, ALLOC, LOAD, READONLY, CODE
 34 .text         00000022  00000558  00000558  0000060c  2**1
                  CONTENTS, ALLOC, LOAD, READONLY, CODE
 35 .text         00000044  000004a8  000004a8  0000055c  2**1
                  CONTENTS, ALLOC, LOAD, READONLY, CODE
 36 .text         0000000e  00000606  00000606  000006ba  2**1
                  CONTENTS, ALLOC, LOAD, READONLY, CODE
 37 .text         00000008  00000628  00000628  000006dc  2**1
                  CONTENTS, ALLOC, LOAD, READONLY, CODE
 38 .text         000000d4  000002be  000002be  00000372  2**1
                  CONTENTS, ALLOC, LOAD, READONLY, CODE
 39 .text.libgcc.mul 0000001e  0000057a  0000057a  0000062e  2**1
                  CONTENTS, ALLOC, LOAD, READONLY, CODE
 40 .text.__dummy_fini 00000002  0000063e  0000063e  000006f2  2**1
                  CONTENTS, ALLOC, LOAD, READONLY, CODE
 41 .text.__dummy_funcs_on_exit 00000002  00000640  00000640  000006f4  2**1
                  CONTENTS, ALLOC, LOAD, READONLY, CODE
 42 .text.__dummy_simulator_exit 00000002  00000642  00000642  000006f6  2**1
                  CONTENTS, ALLOC, LOAD, READONLY, CODE
 43 .text.exit    00000016  00000598  00000598  0000064c  2**1
                  CONTENTS, ALLOC, LOAD, READONLY, CODE
 44 .text._Exit   00000004  0000063a  0000063a  000006ee  2**1
                  CONTENTS, ALLOC, LOAD, READONLY, CODE

Disassembly of section .text:

00000000 <__vectors>:
   0:	0c 94 30 00 	jmp	0x60	; 0x60 <__ctors_end>
   4:	0c 94 76 02 	jmp	0x4ec	; 0x4ec <__vector_1>
   8:	0c 94 91 02 	jmp	0x522	; 0x522 <__vector_2>
   c:	0c 94 1b 03 	jmp	0x636	; 0x636 <__bad_interrupt>
  10:	0c 94 eb 02 	jmp	0x5d6	; 0x5d6 <__vector_4>
  14:	0c 94 1b 03 	jmp	0x636	; 0x636 <__bad_interrupt>
  18:	0c 94 1b 03 	jmp	0x636	; 0x636 <__bad_interrupt>
  1c:	0c 94 1b 03 	jmp	0x636	; 0x636 <__bad_interrupt>
  20:	0c 94 1b 03 	jmp	0x636	; 0x636 <__bad_interrupt>
  24:	0c 94 e1 02 	jmp	0x5c2	; 0x5c2 <__vector_9>
  28:	0c 94 1b 03 	jmp	0x636	; 0x636 <__bad_interrupt>
  2c:	0c 94 1b 03 	jmp	0x636	; 0x636 <__bad_interrupt>
  30:	0c 94 1b 03 	jmp	0x636	; 0x636 <__bad_interrupt>
  34:	0c 94 1b 03 	jmp	0x636	; 0x636 <__bad_interrupt>
  38:	0c 94 1b 03 	jmp	0x636	; 0x636 <__bad_interrupt>
  3c:	0c 94 1b 03 	jmp	0x636	; 0x636 <__bad_interrupt>
  40:	0c 94 1b 03 	jmp	0x636	; 0x636 <__bad_interrupt>
  44:	0c 94 1b 03 	jmp	0x636	; 0x636 <__bad_interrupt>
  48:	0c 94 c9 01 	jmp	0x392	; 0x392 <__vector_18>
  4c:	0c 94 1b 03 	jmp	0x636	; 0x636 <__bad_interrupt>
  50:	0c 94 1b 03 	jmp	0x636	; 0x636 <__bad_interrupt>

00000054 <.dinit>:
  54:	00 60       	ori	r16, 0x00	; 0
  56:	00 68       	ori	r16, 0x80	; 128
  58:	00 06       	cpc	r0, r16
  5a:	44 00       	.word	0x0044	; ????
  5c:	68 00       	.word	0x0068	; ????
  5e:	70 80       	ld	r7, Z

00000060 <__ctors_end>:
  60:	11 24       	eor	r1, r1
  62:	1f be       	out	0x3f, r1	; 63
  64:	cf e5       	ldi	r28, 0x5F	; 95
  66:	d4 e0       	ldi	r29, 0x04	; 4
  68:	de bf       	out	0x3e, r29	; 62
  6a:	cd bf       	out	0x3d, r28	; 61

0000006c <__do_copy_data>:
  6c:	e4 e5       	ldi	r30, 0x54	; 84
  6e:	f0 e0       	ldi	r31, 0x00	; 0
  70:	40 e0       	ldi	r20, 0x00	; 0
  72:	17 c0       	rjmp	.+46     	; 0xa2 <__do_clear_bss+0x8>
  74:	b5 91       	lpm	r27, Z+
  76:	a5 91       	lpm	r26, Z+
  78:	35 91       	lpm	r19, Z+
  7a:	25 91       	lpm	r18, Z+
  7c:	05 91       	lpm	r16, Z+
  7e:	07 fd       	sbrc	r16, 7
  80:	0c c0       	rjmp	.+24     	; 0x9a <__do_clear_bss>
  82:	95 91       	lpm	r25, Z+
  84:	85 91       	lpm	r24, Z+
  86:	ef 01       	movw	r28, r30
  88:	f9 2f       	mov	r31, r25
  8a:	e8 2f       	mov	r30, r24
  8c:	05 90       	lpm	r0, Z+
  8e:	0d 92       	st	X+, r0
  90:	a2 17       	cp	r26, r18
  92:	b3 07       	cpc	r27, r19
  94:	d9 f7       	brne	.-10     	; 0x8c <__do_copy_data+0x20>
  96:	fe 01       	movw	r30, r28
  98:	04 c0       	rjmp	.+8      	; 0xa2 <__do_clear_bss+0x8>

0000009a <__do_clear_bss>:
  9a:	1d 92       	st	X+, r1
  9c:	a2 17       	cp	r26, r18
  9e:	b3 07       	cpc	r27, r19
  a0:	e1 f7       	brne	.-8      	; 0x9a <__do_clear_bss>
  a2:	e0 36       	cpi	r30, 0x60	; 96
  a4:	f4 07       	cpc	r31, r20
  a6:	31 f7       	brne	.-52     	; 0x74 <__do_copy_data+0x8>
  a8:	0e 94 5a 00 	call	0xb4	; 0xb4 <_etext>
  ac:	0c 94 cc 02 	jmp	0x598	; 0x598 <exit>

000000b0 <_exit>:
  b0:	f8 94       	cli

000000b2 <__stop_program>:
  b2:	ff cf       	rjmp	.-2      	; 0xb2 <__stop_program>

Disassembly of section .text:

00000636 <__bad_interrupt>:
 636:	0c 94 00 00 	jmp	0	; 0x0 <__TEXT_REGION_ORIGIN__>

Disassembly of section .text.triggerSonar:

000005ae <triggerSonar>:
	PORTB &= ~(1<<RF);
	PORTB &= ~(1<<LF);
}

void triggerSonar(){
	PORTD|=(1<<trigger);
 5ae:	82 b3       	in	r24, 0x12	; 18
 5b0:	81 60       	ori	r24, 0x01	; 1
 5b2:	82 bb       	out	0x12, r24	; 18
	#else
		//round up by default
		__ticks_dc = (uint32_t)(ceil(fabs(__tmp)));
	#endif

	__builtin_avr_delay_cycles(__ticks_dc);
 5b4:	85 e0       	ldi	r24, 0x05	; 5
 5b6:	8a 95       	dec	r24
 5b8:	f1 f7       	brne	.-4      	; 0x5b6 <triggerSonar+0x8>
	_delay_us(15);
	PORTD &=~(1<<trigger);
 5ba:	82 b3       	in	r24, 0x12	; 18
 5bc:	8e 7f       	andi	r24, 0xFE	; 254
 5be:	82 bb       	out	0x12, r24	; 18
 5c0:	08 95       	ret

Disassembly of section .text.main:

000000b4 <main>:
void moveForward() {
	PORTB |= (1<<RF);
	PORTB |= (1<<LF);
	_delay_ms(10);
	PORTB &= ~(1<<RF);
	PORTB &= ~(1<<LF);
  b4:	8f ef       	ldi	r24, 0xFF	; 255
  b6:	8a bb       	out	0x1a, r24	; 26
  b8:	8a b3       	in	r24, 0x1a	; 26
  ba:	8b 7f       	andi	r24, 0xFB	; 251
  bc:	8a bb       	out	0x1a, r24	; 26
  be:	87 b3       	in	r24, 0x17	; 23
  c0:	83 61       	ori	r24, 0x13	; 19
  c2:	87 bb       	out	0x17, r24	; 23
  c4:	87 b3       	in	r24, 0x17	; 23
  c6:	8b 7f       	andi	r24, 0xFB	; 251
  c8:	87 bb       	out	0x17, r24	; 23
  ca:	81 b3       	in	r24, 0x11	; 17
  cc:	81 60       	ori	r24, 0x01	; 1
  ce:	81 bb       	out	0x11, r24	; 17
  d0:	81 b3       	in	r24, 0x11	; 17
  d2:	8b 7f       	andi	r24, 0xFB	; 251
  d4:	81 bb       	out	0x11, r24	; 17
  d6:	81 b3       	in	r24, 0x11	; 17
  d8:	87 7f       	andi	r24, 0xF7	; 247
  da:	81 bb       	out	0x11, r24	; 17
  dc:	1b ba       	out	0x1b, r1	; 27
  de:	87 b3       	in	r24, 0x17	; 23
  e0:	88 60       	ori	r24, 0x08	; 8
  e2:	87 bb       	out	0x17, r24	; 23
  e4:	81 b3       	in	r24, 0x11	; 17
  e6:	80 68       	ori	r24, 0x80	; 128
  e8:	81 bb       	out	0x11, r24	; 17
  ea:	88 e6       	ldi	r24, 0x68	; 104
  ec:	83 bf       	out	0x33, r24	; 51
  ee:	85 bd       	out	0x25, r24	; 37
  f0:	81 e4       	ldi	r24, 0x41	; 65
  f2:	89 bf       	out	0x39, r24	; 57
  f4:	20 e0       	ldi	r18, 0x00	; 0
  f6:	30 e0       	ldi	r19, 0x00	; 0
  f8:	48 ec       	ldi	r20, 0xC8	; 200
  fa:	52 e4       	ldi	r21, 0x42	; 66
  fc:	60 91 64 00 	lds	r22, 0x0064	; 0x800064 <rightDutyCycle>
 100:	70 91 65 00 	lds	r23, 0x0065	; 0x800065 <rightDutyCycle+0x1>
 104:	80 91 66 00 	lds	r24, 0x0066	; 0x800066 <rightDutyCycle+0x2>
 108:	90 91 67 00 	lds	r25, 0x0067	; 0x800067 <rightDutyCycle+0x3>
 10c:	0e 94 10 03 	call	0x620	; 0x620 <__divsf3>
 110:	20 e0       	ldi	r18, 0x00	; 0
 112:	30 e0       	ldi	r19, 0x00	; 0
 114:	4f e7       	ldi	r20, 0x7F	; 127
 116:	53 e4       	ldi	r21, 0x43	; 67
 118:	0e 94 14 03 	call	0x628	; 0x628 <__mulsf3>
 11c:	0e 94 25 02 	call	0x44a	; 0x44a <__fixunssfsi>
 120:	6c bf       	out	0x3c, r22	; 60
 122:	20 e0       	ldi	r18, 0x00	; 0
 124:	30 e0       	ldi	r19, 0x00	; 0
 126:	48 ec       	ldi	r20, 0xC8	; 200
 128:	52 e4       	ldi	r21, 0x42	; 66
 12a:	60 91 60 00 	lds	r22, 0x0060	; 0x800060 <__DATA_REGION_ORIGIN__>
 12e:	70 91 61 00 	lds	r23, 0x0061	; 0x800061 <__DATA_REGION_ORIGIN__+0x1>
 132:	80 91 62 00 	lds	r24, 0x0062	; 0x800062 <__DATA_REGION_ORIGIN__+0x2>
 136:	90 91 63 00 	lds	r25, 0x0063	; 0x800063 <__DATA_REGION_ORIGIN__+0x3>
 13a:	0e 94 10 03 	call	0x620	; 0x620 <__divsf3>
 13e:	20 e0       	ldi	r18, 0x00	; 0
 140:	30 e0       	ldi	r19, 0x00	; 0
 142:	4f e7       	ldi	r20, 0x7F	; 127
 144:	53 e4       	ldi	r21, 0x43	; 67
 146:	0e 94 14 03 	call	0x628	; 0x628 <__mulsf3>
 14a:	0e 94 25 02 	call	0x44a	; 0x44a <__fixunssfsi>
 14e:	63 bd       	out	0x23, r22	; 35
 150:	8b b7       	in	r24, 0x3b	; 59
 152:	80 64       	ori	r24, 0x40	; 64
 154:	8b bf       	out	0x3b, r24	; 59
 156:	85 b7       	in	r24, 0x35	; 53
 158:	81 60       	ori	r24, 0x01	; 1
 15a:	85 bf       	out	0x35, r24	; 53
 15c:	1f bc       	out	0x2f, r1	; 47
 15e:	8b b7       	in	r24, 0x3b	; 59
 160:	80 68       	ori	r24, 0x80	; 128
 162:	8b bf       	out	0x3b, r24	; 59
 164:	85 b7       	in	r24, 0x35	; 53
 166:	8a 60       	ori	r24, 0x0A	; 10
 168:	85 bf       	out	0x35, r24	; 53
 16a:	84 b7       	in	r24, 0x34	; 52
 16c:	80 64       	ori	r24, 0x40	; 64
 16e:	84 bf       	out	0x34, r24	; 52
 170:	8b b7       	in	r24, 0x3b	; 59
 172:	80 62       	ori	r24, 0x20	; 32
 174:	8b bf       	out	0x3b, r24	; 59
 176:	78 94       	sei
 178:	83 b7       	in	r24, 0x33	; 51
 17a:	81 60       	ori	r24, 0x01	; 1
 17c:	83 bf       	out	0x33, r24	; 51
 17e:	85 b5       	in	r24, 0x25	; 37
 180:	81 60       	ori	r24, 0x01	; 1
 182:	85 bd       	out	0x25, r24	; 37
 184:	8b b3       	in	r24, 0x1b	; 27
 186:	8b bb       	out	0x1b, r24	; 27
 188:	8b b3       	in	r24, 0x1b	; 27
 18a:	81 60       	ori	r24, 0x01	; 1
 18c:	8b bb       	out	0x1b, r24	; 27
 18e:	0e 94 d7 02 	call	0x5ae	; 0x5ae <triggerSonar>
 192:	80 91 6a 00 	lds	r24, 0x006A	; 0x80006a <leftCount>
 196:	90 91 6b 00 	lds	r25, 0x006B	; 0x80006b <leftCount+0x1>
 19a:	81 35       	cpi	r24, 0x51	; 81
 19c:	91 05       	cpc	r25, r1
 19e:	34 f4       	brge	.+12     	; 0x1ac <main+0xf8>
 1a0:	8b b3       	in	r24, 0x1b	; 27
 1a2:	8b bb       	out	0x1b, r24	; 27
 1a4:	88 b3       	in	r24, 0x18	; 24
 1a6:	80 61       	ori	r24, 0x10	; 16
 1a8:	88 bb       	out	0x18, r24	; 24
 1aa:	05 c0       	rjmp	.+10     	; 0x1b6 <main+0x102>
 1ac:	8b b3       	in	r24, 0x1b	; 27
 1ae:	8b bb       	out	0x1b, r24	; 27
 1b0:	88 b3       	in	r24, 0x18	; 24
 1b2:	8f 7e       	andi	r24, 0xEF	; 239
 1b4:	88 bb       	out	0x18, r24	; 24
 1b6:	80 91 68 00 	lds	r24, 0x0068	; 0x800068 <rightCount>
 1ba:	90 91 69 00 	lds	r25, 0x0069	; 0x800069 <rightCount+0x1>
 1be:	81 35       	cpi	r24, 0x51	; 81
 1c0:	91 05       	cpc	r25, r1
 1c2:	3c f4       	brge	.+14     	; 0x1d2 <main+0x11e>
 1c4:	8b b3       	in	r24, 0x1b	; 27
 1c6:	81 60       	ori	r24, 0x01	; 1
 1c8:	8b bb       	out	0x1b, r24	; 27
 1ca:	88 b3       	in	r24, 0x18	; 24
 1cc:	81 60       	ori	r24, 0x01	; 1
 1ce:	88 bb       	out	0x18, r24	; 24
 1d0:	e0 cf       	rjmp	.-64     	; 0x192 <main+0xde>
 1d2:	8b b3       	in	r24, 0x1b	; 27
 1d4:	8e 7f       	andi	r24, 0xFE	; 254
 1d6:	8b bb       	out	0x1b, r24	; 27
 1d8:	88 b3       	in	r24, 0x18	; 24
 1da:	8e 7f       	andi	r24, 0xFE	; 254
 1dc:	88 bb       	out	0x18, r24	; 24
 1de:	d9 cf       	rjmp	.-78     	; 0x192 <main+0xde>

Disassembly of section .text.__vector_1:

000004ec <__vector_1>:
 4ec:	1f 92       	push	r1
 4ee:	0f 92       	push	r0
 4f0:	0f b6       	in	r0, 0x3f	; 63
 4f2:	0f 92       	push	r0
 4f4:	11 24       	eor	r1, r1
 4f6:	8f 93       	push	r24
 4f8:	9f 93       	push	r25
 4fa:	9b b3       	in	r25, 0x1b	; 27
 4fc:	80 e4       	ldi	r24, 0x40	; 64
 4fe:	89 27       	eor	r24, r25
 500:	8b bb       	out	0x1b, r24	; 27
 502:	80 91 6a 00 	lds	r24, 0x006A	; 0x80006a <leftCount>
 506:	90 91 6b 00 	lds	r25, 0x006B	; 0x80006b <leftCount+0x1>
 50a:	01 96       	adiw	r24, 0x01	; 1
 50c:	90 93 6b 00 	sts	0x006B, r25	; 0x80006b <leftCount+0x1>
 510:	80 93 6a 00 	sts	0x006A, r24	; 0x80006a <leftCount>
 514:	9f 91       	pop	r25
 516:	8f 91       	pop	r24
 518:	0f 90       	pop	r0
 51a:	0f be       	out	0x3f, r0	; 63
 51c:	0f 90       	pop	r0
 51e:	1f 90       	pop	r1
 520:	18 95       	reti

Disassembly of section .text.__vector_9:

000005c2 <__vector_9>:
	// left wheel
	PORTA ^= (1<<leftLed);
	leftCount++;
}

ISR(TIMER0_OVF_vect){
 5c2:	1f 92       	push	r1
 5c4:	0f 92       	push	r0
 5c6:	0f b6       	in	r0, 0x3f	; 63
 5c8:	0f 92       	push	r0
 5ca:	11 24       	eor	r1, r1
	// right
	//OCR0 = (rightDutyCycle/100)*255;
}
 5cc:	0f 90       	pop	r0
 5ce:	0f be       	out	0x3f, r0	; 63
 5d0:	0f 90       	pop	r0
 5d2:	1f 90       	pop	r1
 5d4:	18 95       	reti

Disassembly of section .text.__vector_4:

000005d6 <__vector_4>:

ISR(TIMER2_OVF_vect){
 5d6:	1f 92       	push	r1
 5d8:	0f 92       	push	r0
 5da:	0f b6       	in	r0, 0x3f	; 63
 5dc:	0f 92       	push	r0
 5de:	11 24       	eor	r1, r1
	//OCR2 = (leftDutyCycle/100)*255;
	//leftDutyCycle = leftDutyCycle==250?0:leftDutyCycle;
	//OCR2 = leftDutyCycle++;
}
 5e0:	0f 90       	pop	r0
 5e2:	0f be       	out	0x3f, r0	; 63
 5e4:	0f 90       	pop	r0
 5e6:	1f 90       	pop	r1
 5e8:	18 95       	reti

Disassembly of section .text.__vector_2:

00000522 <__vector_2>:
void moveForward() {
	PORTB |= (1<<RF);
	PORTB |= (1<<LF);
	_delay_ms(10);
	PORTB &= ~(1<<RF);
	PORTB &= ~(1<<LF);
 522:	1f 92       	push	r1
 524:	0f 92       	push	r0
 526:	0f b6       	in	r0, 0x3f	; 63
 528:	0f 92       	push	r0
 52a:	11 24       	eor	r1, r1
 52c:	8f 93       	push	r24
 52e:	9f 93       	push	r25
 530:	9b b3       	in	r25, 0x1b	; 27
 532:	80 e1       	ldi	r24, 0x10	; 16
 534:	89 27       	eor	r24, r25
 536:	8b bb       	out	0x1b, r24	; 27
 538:	80 91 68 00 	lds	r24, 0x0068	; 0x800068 <rightCount>
 53c:	90 91 69 00 	lds	r25, 0x0069	; 0x800069 <rightCount+0x1>
 540:	01 96       	adiw	r24, 0x01	; 1
 542:	90 93 69 00 	sts	0x0069, r25	; 0x800069 <rightCount+0x1>
 546:	80 93 68 00 	sts	0x0068, r24	; 0x800068 <rightCount>
 54a:	9f 91       	pop	r25
 54c:	8f 91       	pop	r24
 54e:	0f 90       	pop	r0
 550:	0f be       	out	0x3f, r0	; 63
 552:	0f 90       	pop	r0
 554:	1f 90       	pop	r1
 556:	18 95       	reti

Disassembly of section .text.__vector_18:

00000392 <__vector_18>:
 392:	1f 92       	push	r1
 394:	0f 92       	push	r0
 396:	0f b6       	in	r0, 0x3f	; 63
 398:	0f 92       	push	r0
 39a:	11 24       	eor	r1, r1
 39c:	2f 93       	push	r18
 39e:	3f 93       	push	r19
 3a0:	4f 93       	push	r20
 3a2:	5f 93       	push	r21
 3a4:	6f 93       	push	r22
 3a6:	7f 93       	push	r23
 3a8:	8f 93       	push	r24
 3aa:	9f 93       	push	r25
 3ac:	af 93       	push	r26
 3ae:	bf 93       	push	r27
 3b0:	ef 93       	push	r30
 3b2:	ff 93       	push	r31
 3b4:	80 91 6c 00 	lds	r24, 0x006C	; 0x80006c <i>
 3b8:	90 91 6d 00 	lds	r25, 0x006D	; 0x80006d <i+0x1>
 3bc:	01 97       	sbiw	r24, 0x01	; 1
 3be:	29 f5       	brne	.+74     	; 0x40a <__DATA_REGION_LENGTH__+0xa>
 3c0:	1e bc       	out	0x2e, r1	; 46
 3c2:	2c b5       	in	r18, 0x2c	; 44
 3c4:	3d b5       	in	r19, 0x2d	; 45
 3c6:	af e9       	ldi	r26, 0x9F	; 159
 3c8:	b6 e4       	ldi	r27, 0x46	; 70
 3ca:	0e 94 bd 02 	call	0x57a	; 0x57a <__umulhisi3>
 3ce:	92 95       	swap	r25
 3d0:	82 95       	swap	r24
 3d2:	8f 70       	andi	r24, 0x0F	; 15
 3d4:	89 27       	eor	r24, r25
 3d6:	9f 70       	andi	r25, 0x0F	; 15
 3d8:	89 27       	eor	r24, r25
 3da:	90 93 6f 00 	sts	0x006F, r25	; 0x80006f <distance+0x1>
 3de:	80 93 6e 00 	sts	0x006E, r24	; 0x80006e <distance>
 3e2:	1d bc       	out	0x2d, r1	; 45
 3e4:	1c bc       	out	0x2c, r1	; 44
 3e6:	80 91 6e 00 	lds	r24, 0x006E	; 0x80006e <distance>
 3ea:	90 91 6f 00 	lds	r25, 0x006F	; 0x80006f <distance+0x1>
 3ee:	0a 97       	sbiw	r24, 0x0a	; 10
 3f0:	18 f4       	brcc	.+6      	; 0x3f8 <__vector_18+0x66>
 3f2:	8b b3       	in	r24, 0x1b	; 27
 3f4:	81 60       	ori	r24, 0x01	; 1
 3f6:	8b bb       	out	0x1b, r24	; 27
 3f8:	10 92 6d 00 	sts	0x006D, r1	; 0x80006d <i+0x1>
 3fc:	10 92 6c 00 	sts	0x006C, r1	; 0x80006c <i>
 400:	0e 94 d7 02 	call	0x5ae	; 0x5ae <triggerSonar>
 404:	8b b3       	in	r24, 0x1b	; 27
 406:	8e 7f       	andi	r24, 0xFE	; 254
 408:	8b bb       	out	0x1b, r24	; 27
 40a:	80 91 6c 00 	lds	r24, 0x006C	; 0x80006c <i>
 40e:	90 91 6d 00 	lds	r25, 0x006D	; 0x80006d <i+0x1>
 412:	89 2b       	or	r24, r25
 414:	49 f4       	brne	.+18     	; 0x428 <__DATA_REGION_LENGTH__+0x28>
 416:	8e b5       	in	r24, 0x2e	; 46
 418:	81 60       	ori	r24, 0x01	; 1
 41a:	8e bd       	out	0x2e, r24	; 46
 41c:	81 e0       	ldi	r24, 0x01	; 1
 41e:	90 e0       	ldi	r25, 0x00	; 0
 420:	90 93 6d 00 	sts	0x006D, r25	; 0x80006d <i+0x1>
 424:	80 93 6c 00 	sts	0x006C, r24	; 0x80006c <i>
 428:	ff 91       	pop	r31
 42a:	ef 91       	pop	r30
 42c:	bf 91       	pop	r27
 42e:	af 91       	pop	r26
 430:	9f 91       	pop	r25
 432:	8f 91       	pop	r24
 434:	7f 91       	pop	r23
 436:	6f 91       	pop	r22
 438:	5f 91       	pop	r21
 43a:	4f 91       	pop	r20
 43c:	3f 91       	pop	r19
 43e:	2f 91       	pop	r18
 440:	0f 90       	pop	r0
 442:	0f be       	out	0x3f, r0	; 63
 444:	0f 90       	pop	r0
 446:	1f 90       	pop	r1
 448:	18 95       	reti

Disassembly of section .text:

00000620 <__divsf3>:
 620:	0e 94 f0 00 	call	0x1e0	; 0x1e0 <__divsf3x>
 624:	0c 94 ac 02 	jmp	0x558	; 0x558 <__fp_round>

Disassembly of section .text:

000001e0 <__divsf3x>:
 1e0:	10 c0       	rjmp	.+32     	; 0x202 <__EEPROM_REGION_LENGTH__+0x2>
 1e2:	0e 94 fc 02 	call	0x5f8	; 0x5f8 <__fp_pscB>
 1e6:	58 f0       	brcs	.+22     	; 0x1fe <__divsf3x+0x1e>
 1e8:	0e 94 f5 02 	call	0x5ea	; 0x5ea <__fp_pscA>
 1ec:	40 f0       	brcs	.+16     	; 0x1fe <__divsf3x+0x1e>
 1ee:	29 f4       	brne	.+10     	; 0x1fa <__divsf3x+0x1a>
 1f0:	5f 3f       	cpi	r21, 0xFF	; 255
 1f2:	29 f0       	breq	.+10     	; 0x1fe <__divsf3x+0x1e>
 1f4:	0c 94 0a 03 	jmp	0x614	; 0x614 <__fp_inf>
 1f8:	51 11       	cpse	r21, r1
 1fa:	0c 94 04 03 	jmp	0x608	; 0x608 <__fp_szero>
 1fe:	0c 94 18 03 	jmp	0x630	; 0x630 <__fp_nan>
 202:	0e 94 54 02 	call	0x4a8	; 0x4a8 <__fp_split3>
 206:	68 f3       	brcs	.-38     	; 0x1e2 <__divsf3x+0x2>

00000208 <__divsf3_pse>:
 208:	99 23       	and	r25, r25
 20a:	b1 f3       	breq	.-20     	; 0x1f8 <__divsf3x+0x18>
 20c:	55 23       	and	r21, r21
 20e:	91 f3       	breq	.-28     	; 0x1f4 <__divsf3x+0x14>
 210:	95 1b       	sub	r25, r21
 212:	55 0b       	sbc	r21, r21
 214:	bb 27       	eor	r27, r27
 216:	aa 27       	eor	r26, r26
 218:	62 17       	cp	r22, r18
 21a:	73 07       	cpc	r23, r19
 21c:	84 07       	cpc	r24, r20
 21e:	38 f0       	brcs	.+14     	; 0x22e <__divsf3_pse+0x26>
 220:	9f 5f       	subi	r25, 0xFF	; 255
 222:	5f 4f       	sbci	r21, 0xFF	; 255
 224:	22 0f       	add	r18, r18
 226:	33 1f       	adc	r19, r19
 228:	44 1f       	adc	r20, r20
 22a:	aa 1f       	adc	r26, r26
 22c:	a9 f3       	breq	.-22     	; 0x218 <__divsf3_pse+0x10>
 22e:	35 d0       	rcall	.+106    	; 0x29a <__divsf3_pse+0x92>
 230:	0e 2e       	mov	r0, r30
 232:	3a f0       	brmi	.+14     	; 0x242 <__divsf3_pse+0x3a>
 234:	e0 e8       	ldi	r30, 0x80	; 128
 236:	32 d0       	rcall	.+100    	; 0x29c <__divsf3_pse+0x94>
 238:	91 50       	subi	r25, 0x01	; 1
 23a:	50 40       	sbci	r21, 0x00	; 0
 23c:	e6 95       	lsr	r30
 23e:	00 1c       	adc	r0, r0
 240:	ca f7       	brpl	.-14     	; 0x234 <__divsf3_pse+0x2c>
 242:	2b d0       	rcall	.+86     	; 0x29a <__divsf3_pse+0x92>
 244:	fe 2f       	mov	r31, r30
 246:	29 d0       	rcall	.+82     	; 0x29a <__divsf3_pse+0x92>
 248:	66 0f       	add	r22, r22
 24a:	77 1f       	adc	r23, r23
 24c:	88 1f       	adc	r24, r24
 24e:	bb 1f       	adc	r27, r27
 250:	26 17       	cp	r18, r22
 252:	37 07       	cpc	r19, r23
 254:	48 07       	cpc	r20, r24
 256:	ab 07       	cpc	r26, r27
 258:	b0 e8       	ldi	r27, 0x80	; 128
 25a:	09 f0       	breq	.+2      	; 0x25e <__divsf3_pse+0x56>
 25c:	bb 0b       	sbc	r27, r27
 25e:	80 2d       	mov	r24, r0
 260:	bf 01       	movw	r22, r30
 262:	ff 27       	eor	r31, r31
 264:	93 58       	subi	r25, 0x83	; 131
 266:	5f 4f       	sbci	r21, 0xFF	; 255
 268:	3a f0       	brmi	.+14     	; 0x278 <__divsf3_pse+0x70>
 26a:	9e 3f       	cpi	r25, 0xFE	; 254
 26c:	51 05       	cpc	r21, r1
 26e:	78 f0       	brcs	.+30     	; 0x28e <__divsf3_pse+0x86>
 270:	0c 94 0a 03 	jmp	0x614	; 0x614 <__fp_inf>
 274:	0c 94 04 03 	jmp	0x608	; 0x608 <__fp_szero>
 278:	5f 3f       	cpi	r21, 0xFF	; 255
 27a:	e4 f3       	brlt	.-8      	; 0x274 <__divsf3_pse+0x6c>
 27c:	98 3e       	cpi	r25, 0xE8	; 232
 27e:	d4 f3       	brlt	.-12     	; 0x274 <__divsf3_pse+0x6c>
 280:	86 95       	lsr	r24
 282:	77 95       	ror	r23
 284:	67 95       	ror	r22
 286:	b7 95       	ror	r27
 288:	f7 95       	ror	r31
 28a:	9f 5f       	subi	r25, 0xFF	; 255
 28c:	c9 f7       	brne	.-14     	; 0x280 <__divsf3_pse+0x78>
 28e:	88 0f       	add	r24, r24
 290:	91 1d       	adc	r25, r1
 292:	96 95       	lsr	r25
 294:	87 95       	ror	r24
 296:	97 f9       	bld	r25, 7
 298:	08 95       	ret
 29a:	e1 e0       	ldi	r30, 0x01	; 1
 29c:	66 0f       	add	r22, r22
 29e:	77 1f       	adc	r23, r23
 2a0:	88 1f       	adc	r24, r24
 2a2:	bb 1f       	adc	r27, r27
 2a4:	62 17       	cp	r22, r18
 2a6:	73 07       	cpc	r23, r19
 2a8:	84 07       	cpc	r24, r20
 2aa:	ba 07       	cpc	r27, r26
 2ac:	20 f0       	brcs	.+8      	; 0x2b6 <__divsf3_pse+0xae>
 2ae:	62 1b       	sub	r22, r18
 2b0:	73 0b       	sbc	r23, r19
 2b2:	84 0b       	sbc	r24, r20
 2b4:	ba 0b       	sbc	r27, r26
 2b6:	ee 1f       	adc	r30, r30
 2b8:	88 f7       	brcc	.-30     	; 0x29c <__divsf3_pse+0x94>
 2ba:	e0 95       	com	r30
 2bc:	08 95       	ret

Disassembly of section .text:

0000044a <__fixunssfsi>:
 44a:	0e 94 5c 02 	call	0x4b8	; 0x4b8 <__fp_splitA>
 44e:	88 f0       	brcs	.+34     	; 0x472 <__stack+0x13>
 450:	9f 57       	subi	r25, 0x7F	; 127
 452:	98 f0       	brcs	.+38     	; 0x47a <__stack+0x1b>
 454:	b9 2f       	mov	r27, r25
 456:	99 27       	eor	r25, r25
 458:	b7 51       	subi	r27, 0x17	; 23
 45a:	b0 f0       	brcs	.+44     	; 0x488 <__stack+0x29>
 45c:	e1 f0       	breq	.+56     	; 0x496 <__stack+0x37>
 45e:	66 0f       	add	r22, r22
 460:	77 1f       	adc	r23, r23
 462:	88 1f       	adc	r24, r24
 464:	99 1f       	adc	r25, r25
 466:	1a f0       	brmi	.+6      	; 0x46e <__stack+0xf>
 468:	ba 95       	dec	r27
 46a:	c9 f7       	brne	.-14     	; 0x45e <__fixunssfsi+0x14>
 46c:	14 c0       	rjmp	.+40     	; 0x496 <__stack+0x37>
 46e:	b1 30       	cpi	r27, 0x01	; 1
 470:	91 f0       	breq	.+36     	; 0x496 <__stack+0x37>
 472:	0e 94 03 03 	call	0x606	; 0x606 <__fp_zero>
 476:	b1 e0       	ldi	r27, 0x01	; 1
 478:	08 95       	ret
 47a:	0c 94 03 03 	jmp	0x606	; 0x606 <__fp_zero>
 47e:	67 2f       	mov	r22, r23
 480:	78 2f       	mov	r23, r24
 482:	88 27       	eor	r24, r24
 484:	b8 5f       	subi	r27, 0xF8	; 248
 486:	39 f0       	breq	.+14     	; 0x496 <__stack+0x37>
 488:	b9 3f       	cpi	r27, 0xF9	; 249
 48a:	cc f3       	brlt	.-14     	; 0x47e <__stack+0x1f>
 48c:	86 95       	lsr	r24
 48e:	77 95       	ror	r23
 490:	67 95       	ror	r22
 492:	b3 95       	inc	r27
 494:	d9 f7       	brne	.-10     	; 0x48c <__stack+0x2d>
 496:	3e f4       	brtc	.+14     	; 0x4a6 <__stack+0x47>
 498:	90 95       	com	r25
 49a:	80 95       	com	r24
 49c:	70 95       	com	r23
 49e:	61 95       	neg	r22
 4a0:	7f 4f       	sbci	r23, 0xFF	; 255
 4a2:	8f 4f       	sbci	r24, 0xFF	; 255
 4a4:	9f 4f       	sbci	r25, 0xFF	; 255
 4a6:	08 95       	ret

Disassembly of section .text:

00000614 <__fp_inf>:
 614:	97 f9       	bld	r25, 7
 616:	9f 67       	ori	r25, 0x7F	; 127
 618:	80 e8       	ldi	r24, 0x80	; 128
 61a:	70 e0       	ldi	r23, 0x00	; 0
 61c:	60 e0       	ldi	r22, 0x00	; 0
 61e:	08 95       	ret

Disassembly of section .text:

00000630 <__fp_nan>:
 630:	9f ef       	ldi	r25, 0xFF	; 255
 632:	80 ec       	ldi	r24, 0xC0	; 192
 634:	08 95       	ret

Disassembly of section .text:

000005ea <__fp_pscA>:
 5ea:	00 24       	eor	r0, r0
 5ec:	0a 94       	dec	r0
 5ee:	16 16       	cp	r1, r22
 5f0:	17 06       	cpc	r1, r23
 5f2:	18 06       	cpc	r1, r24
 5f4:	09 06       	cpc	r0, r25
 5f6:	08 95       	ret

Disassembly of section .text:

000005f8 <__fp_pscB>:
 5f8:	00 24       	eor	r0, r0
 5fa:	0a 94       	dec	r0
 5fc:	12 16       	cp	r1, r18
 5fe:	13 06       	cpc	r1, r19
 600:	14 06       	cpc	r1, r20
 602:	05 06       	cpc	r0, r21
 604:	08 95       	ret

Disassembly of section .text:

00000558 <__fp_round>:
 558:	09 2e       	mov	r0, r25
 55a:	03 94       	inc	r0
 55c:	00 0c       	add	r0, r0
 55e:	11 f4       	brne	.+4      	; 0x564 <__fp_round+0xc>
 560:	88 23       	and	r24, r24
 562:	52 f0       	brmi	.+20     	; 0x578 <__fp_round+0x20>
 564:	bb 0f       	add	r27, r27
 566:	40 f4       	brcc	.+16     	; 0x578 <__fp_round+0x20>
 568:	bf 2b       	or	r27, r31
 56a:	11 f4       	brne	.+4      	; 0x570 <__fp_round+0x18>
 56c:	60 ff       	sbrs	r22, 0
 56e:	04 c0       	rjmp	.+8      	; 0x578 <__fp_round+0x20>
 570:	6f 5f       	subi	r22, 0xFF	; 255
 572:	7f 4f       	sbci	r23, 0xFF	; 255
 574:	8f 4f       	sbci	r24, 0xFF	; 255
 576:	9f 4f       	sbci	r25, 0xFF	; 255
 578:	08 95       	ret

Disassembly of section .text:

000004a8 <__fp_split3>:
 4a8:	57 fd       	sbrc	r21, 7
 4aa:	90 58       	subi	r25, 0x80	; 128
 4ac:	44 0f       	add	r20, r20
 4ae:	55 1f       	adc	r21, r21
 4b0:	59 f0       	breq	.+22     	; 0x4c8 <__fp_splitA+0x10>
 4b2:	5f 3f       	cpi	r21, 0xFF	; 255
 4b4:	71 f0       	breq	.+28     	; 0x4d2 <__fp_splitA+0x1a>
 4b6:	47 95       	ror	r20

000004b8 <__fp_splitA>:
 4b8:	88 0f       	add	r24, r24
 4ba:	97 fb       	bst	r25, 7
 4bc:	99 1f       	adc	r25, r25
 4be:	61 f0       	breq	.+24     	; 0x4d8 <__fp_splitA+0x20>
 4c0:	9f 3f       	cpi	r25, 0xFF	; 255
 4c2:	79 f0       	breq	.+30     	; 0x4e2 <__fp_splitA+0x2a>
 4c4:	87 95       	ror	r24
 4c6:	08 95       	ret
 4c8:	12 16       	cp	r1, r18
 4ca:	13 06       	cpc	r1, r19
 4cc:	14 06       	cpc	r1, r20
 4ce:	55 1f       	adc	r21, r21
 4d0:	f2 cf       	rjmp	.-28     	; 0x4b6 <__fp_split3+0xe>
 4d2:	46 95       	lsr	r20
 4d4:	f1 df       	rcall	.-30     	; 0x4b8 <__fp_splitA>
 4d6:	08 c0       	rjmp	.+16     	; 0x4e8 <__fp_splitA+0x30>
 4d8:	16 16       	cp	r1, r22
 4da:	17 06       	cpc	r1, r23
 4dc:	18 06       	cpc	r1, r24
 4de:	99 1f       	adc	r25, r25
 4e0:	f1 cf       	rjmp	.-30     	; 0x4c4 <__fp_splitA+0xc>
 4e2:	86 95       	lsr	r24
 4e4:	71 05       	cpc	r23, r1
 4e6:	61 05       	cpc	r22, r1
 4e8:	08 94       	sec
 4ea:	08 95       	ret

Disassembly of section .text:

00000606 <__fp_zero>:
 606:	e8 94       	clt

00000608 <__fp_szero>:
 608:	bb 27       	eor	r27, r27
 60a:	66 27       	eor	r22, r22
 60c:	77 27       	eor	r23, r23
 60e:	cb 01       	movw	r24, r22
 610:	97 f9       	bld	r25, 7
 612:	08 95       	ret

Disassembly of section .text:

00000628 <__mulsf3>:
 628:	0e 94 5f 01 	call	0x2be	; 0x2be <__mulsf3x>
 62c:	0c 94 ac 02 	jmp	0x558	; 0x558 <__fp_round>

Disassembly of section .text:

000002be <__mulsf3x>:
 2be:	0f c0       	rjmp	.+30     	; 0x2de <__mulsf3x+0x20>
 2c0:	0e 94 f5 02 	call	0x5ea	; 0x5ea <__fp_pscA>
 2c4:	38 f0       	brcs	.+14     	; 0x2d4 <__mulsf3x+0x16>
 2c6:	0e 94 fc 02 	call	0x5f8	; 0x5f8 <__fp_pscB>
 2ca:	20 f0       	brcs	.+8      	; 0x2d4 <__mulsf3x+0x16>
 2cc:	95 23       	and	r25, r21
 2ce:	11 f0       	breq	.+4      	; 0x2d4 <__mulsf3x+0x16>
 2d0:	0c 94 0a 03 	jmp	0x614	; 0x614 <__fp_inf>
 2d4:	0c 94 18 03 	jmp	0x630	; 0x630 <__fp_nan>
 2d8:	11 24       	eor	r1, r1
 2da:	0c 94 04 03 	jmp	0x608	; 0x608 <__fp_szero>
 2de:	0e 94 54 02 	call	0x4a8	; 0x4a8 <__fp_split3>
 2e2:	70 f3       	brcs	.-36     	; 0x2c0 <__mulsf3x+0x2>

000002e4 <__mulsf3_pse>:
 2e4:	95 9f       	mul	r25, r21
 2e6:	c1 f3       	breq	.-16     	; 0x2d8 <__mulsf3x+0x1a>
 2e8:	95 0f       	add	r25, r21
 2ea:	50 e0       	ldi	r21, 0x00	; 0
 2ec:	55 1f       	adc	r21, r21
 2ee:	62 9f       	mul	r22, r18
 2f0:	f0 01       	movw	r30, r0
 2f2:	72 9f       	mul	r23, r18
 2f4:	bb 27       	eor	r27, r27
 2f6:	f0 0d       	add	r31, r0
 2f8:	b1 1d       	adc	r27, r1
 2fa:	63 9f       	mul	r22, r19
 2fc:	aa 27       	eor	r26, r26
 2fe:	f0 0d       	add	r31, r0
 300:	b1 1d       	adc	r27, r1
 302:	aa 1f       	adc	r26, r26
 304:	64 9f       	mul	r22, r20
 306:	66 27       	eor	r22, r22
 308:	b0 0d       	add	r27, r0
 30a:	a1 1d       	adc	r26, r1
 30c:	66 1f       	adc	r22, r22
 30e:	82 9f       	mul	r24, r18
 310:	22 27       	eor	r18, r18
 312:	b0 0d       	add	r27, r0
 314:	a1 1d       	adc	r26, r1
 316:	62 1f       	adc	r22, r18
 318:	73 9f       	mul	r23, r19
 31a:	b0 0d       	add	r27, r0
 31c:	a1 1d       	adc	r26, r1
 31e:	62 1f       	adc	r22, r18
 320:	83 9f       	mul	r24, r19
 322:	a0 0d       	add	r26, r0
 324:	61 1d       	adc	r22, r1
 326:	22 1f       	adc	r18, r18
 328:	74 9f       	mul	r23, r20
 32a:	33 27       	eor	r19, r19
 32c:	a0 0d       	add	r26, r0
 32e:	61 1d       	adc	r22, r1
 330:	23 1f       	adc	r18, r19
 332:	84 9f       	mul	r24, r20
 334:	60 0d       	add	r22, r0
 336:	21 1d       	adc	r18, r1
 338:	82 2f       	mov	r24, r18
 33a:	76 2f       	mov	r23, r22
 33c:	6a 2f       	mov	r22, r26
 33e:	11 24       	eor	r1, r1
 340:	9f 57       	subi	r25, 0x7F	; 127
 342:	50 40       	sbci	r21, 0x00	; 0
 344:	9a f0       	brmi	.+38     	; 0x36c <__mulsf3_pse+0x88>
 346:	f1 f0       	breq	.+60     	; 0x384 <__mulsf3_pse+0xa0>
 348:	88 23       	and	r24, r24
 34a:	4a f0       	brmi	.+18     	; 0x35e <__mulsf3_pse+0x7a>
 34c:	ee 0f       	add	r30, r30
 34e:	ff 1f       	adc	r31, r31
 350:	bb 1f       	adc	r27, r27
 352:	66 1f       	adc	r22, r22
 354:	77 1f       	adc	r23, r23
 356:	88 1f       	adc	r24, r24
 358:	91 50       	subi	r25, 0x01	; 1
 35a:	50 40       	sbci	r21, 0x00	; 0
 35c:	a9 f7       	brne	.-22     	; 0x348 <__mulsf3_pse+0x64>
 35e:	9e 3f       	cpi	r25, 0xFE	; 254
 360:	51 05       	cpc	r21, r1
 362:	80 f0       	brcs	.+32     	; 0x384 <__mulsf3_pse+0xa0>
 364:	0c 94 0a 03 	jmp	0x614	; 0x614 <__fp_inf>
 368:	0c 94 04 03 	jmp	0x608	; 0x608 <__fp_szero>
 36c:	5f 3f       	cpi	r21, 0xFF	; 255
 36e:	e4 f3       	brlt	.-8      	; 0x368 <__mulsf3_pse+0x84>
 370:	98 3e       	cpi	r25, 0xE8	; 232
 372:	d4 f3       	brlt	.-12     	; 0x368 <__mulsf3_pse+0x84>
 374:	86 95       	lsr	r24
 376:	77 95       	ror	r23
 378:	67 95       	ror	r22
 37a:	b7 95       	ror	r27
 37c:	f7 95       	ror	r31
 37e:	e7 95       	ror	r30
 380:	9f 5f       	subi	r25, 0xFF	; 255
 382:	c1 f7       	brne	.-16     	; 0x374 <__mulsf3_pse+0x90>
 384:	fe 2b       	or	r31, r30
 386:	88 0f       	add	r24, r24
 388:	91 1d       	adc	r25, r1
 38a:	96 95       	lsr	r25
 38c:	87 95       	ror	r24
 38e:	97 f9       	bld	r25, 7
 390:	08 95       	ret

Disassembly of section .text.libgcc.mul:

0000057a <__umulhisi3>:
 57a:	a2 9f       	mul	r26, r18
 57c:	b0 01       	movw	r22, r0
 57e:	b3 9f       	mul	r27, r19
 580:	c0 01       	movw	r24, r0
 582:	a3 9f       	mul	r26, r19
 584:	70 0d       	add	r23, r0
 586:	81 1d       	adc	r24, r1
 588:	11 24       	eor	r1, r1
 58a:	91 1d       	adc	r25, r1
 58c:	b2 9f       	mul	r27, r18
 58e:	70 0d       	add	r23, r0
 590:	81 1d       	adc	r24, r1
 592:	11 24       	eor	r1, r1
 594:	91 1d       	adc	r25, r1
 596:	08 95       	ret

Disassembly of section .text.__dummy_fini:

0000063e <_fini>:
 63e:	08 95       	ret

Disassembly of section .text.__dummy_funcs_on_exit:

00000640 <__funcs_on_exit>:
 640:	08 95       	ret

Disassembly of section .text.__dummy_simulator_exit:

00000642 <__simulator_exit>:
 642:	08 95       	ret

Disassembly of section .text.exit:

00000598 <exit>:
 598:	ec 01       	movw	r28, r24
 59a:	0e 94 20 03 	call	0x640	; 0x640 <__funcs_on_exit>
 59e:	0e 94 1f 03 	call	0x63e	; 0x63e <_fini>
 5a2:	ce 01       	movw	r24, r28
 5a4:	0e 94 21 03 	call	0x642	; 0x642 <__simulator_exit>
 5a8:	ce 01       	movw	r24, r28
 5aa:	0e 94 1d 03 	call	0x63a	; 0x63a <_Exit>

Disassembly of section .text._Exit:

0000063a <_Exit>:
 63a:	0e 94 58 00 	call	0xb0	; 0xb0 <_exit>
